target datalayout = "e-m:e-p270:32:32-p271:32:32-p272:64:64-i64:64-i128:128-f80:128-n8:16:32:64-S128"
target triple = "x86_64-pc-linux-gnu"

%struct.dynhds = type { ptr, i64, i64, i64, i64, i64, i32 }

@Curl_cfree = external global ptr, align 8

; Function Attrs: nounwind uwtable
define internal void @entry_free(ptr noundef %0) #0 {
  %2 = alloca ptr, align 8
  store ptr %0, ptr %2, align 8, !tbaa !20
  %3 = load ptr, ptr @Curl_cfree, align 8, !tbaa !24
  %4 = load ptr, ptr %2, align 8, !tbaa !20
  call void %3(ptr noundef %4)
  ret void
}

; Function Attrs: nounwind uwtable
define hidden void @Curl_dynhds_free(ptr noundef %0) #0 {
  %2 = alloca ptr, align 8
  %3 = alloca i64, align 8
  store ptr %0, ptr %2, align 8, !tbaa !3
  br label %4

4:                                                ; preds = %1
  br label %5

5:                                                ; preds = %4
  %6 = load ptr, ptr %2, align 8, !tbaa !3
  %7 = getelementptr inbounds nuw %struct.dynhds, ptr %6, i32 0, i32 0
  %8 = load ptr, ptr %7, align 8, !tbaa !10
  %9 = icmp ne ptr %8, null
  br i1 %9, label %10, label %36

10:                                               ; preds = %5
  %11 = load ptr, ptr %2, align 8, !tbaa !3
  %12 = getelementptr inbounds nuw %struct.dynhds, ptr %11, i32 0, i32 1
  %13 = load i64, ptr %12, align 8, !tbaa !16
  %14 = icmp ne i64 %13, 0
  br i1 %14, label %15, label %36

15:                                               ; preds = %10
  call void @llvm.lifetime.start.p0(i64 8, ptr %3) #5
  br label %16

16:                                               ; preds = %15
  br label %17

17:                                               ; preds = %16
  br label %18

18:                                               ; preds = %17
  store i64 0, ptr %3, align 8, !tbaa !8
  br label %19

19:                                               ; preds = %32, %18
  %20 = load i64, ptr %3, align 8, !tbaa !8
  %21 = load ptr, ptr %2, align 8, !tbaa !3
  %22 = getelementptr inbounds nuw %struct.dynhds, ptr %21, i32 0, i32 1
  %23 = load i64, ptr %22, align 8, !tbaa !16
  %24 = icmp ult i64 %20, %23
  br i1 %24, label %25, label %35

25:                                               ; preds = %19
  %26 = load ptr, ptr %2, align 8, !tbaa !3
  %27 = getelementptr inbounds nuw %struct.dynhds, ptr %26, i32 0, i32 0
  %28 = load ptr, ptr %27, align 8, !tbaa !10
  %29 = load i64, ptr %3, align 8, !tbaa !8
  %30 = getelementptr inbounds nuw ptr, ptr %28, i64 %29
  %31 = load ptr, ptr %30, align 8, !tbaa !20
  call void @entry_free(ptr noundef %31)
  br label %32

32:                                               ; preds = %25
  %33 = load i64, ptr %3, align 8, !tbaa !8
  %34 = add i64 %33, 1
  store i64 %34, ptr %3, align 8, !tbaa !8
  br label %19, !llvm.loop !22

35:                                               ; preds = %19
  call void @llvm.lifetime.end.p0(i64 8, ptr %3) #5
  br label %36

36:                                               ; preds = %35, %10, %5
  br label %37

37:                                               ; preds = %36
  %38 = load ptr, ptr @Curl_cfree, align 8, !tbaa !24
  %39 = load ptr, ptr %2, align 8, !tbaa !3
  %40 = getelementptr inbounds nuw %struct.dynhds, ptr %39, i32 0, i32 0
  %41 = load ptr, ptr %40, align 8, !tbaa !10
  call void %38(ptr noundef %41)
  %42 = load ptr, ptr %2, align 8, !tbaa !3
  %43 = getelementptr inbounds nuw %struct.dynhds, ptr %42, i32 0, i32 0
  store ptr null, ptr %43, align 8, !tbaa !10
  br label %44

44:                                               ; preds = %37
  %45 = load ptr, ptr %2, align 8, !tbaa !3
  %46 = getelementptr inbounds nuw %struct.dynhds, ptr %45, i32 0, i32 4
  store i64 0, ptr %46, align 8, !tbaa !14
  %47 = load ptr, ptr %2, align 8, !tbaa !3
  %48 = getelementptr inbounds nuw %struct.dynhds, ptr %47, i32 0, i32 2
  store i64 0, ptr %48, align 8, !tbaa !15
  %49 = load ptr, ptr %2, align 8, !tbaa !3
  %50 = getelementptr inbounds nuw %struct.dynhds, ptr %49, i32 0, i32 1
  store i64 0, ptr %50, align 8, !tbaa !16
  ret void
}