; Function Attrs: nounwind uwtable
define hidden void @Curl_dynhds_free(ptr noundef captures(none) %0) local_unnamed_addr #1 {
  %2 = load ptr, ptr %0, align 8, !tbaa !14
  %.not = icmp eq ptr %2, null
  br i1 %.not, label %.loopexit, label %3

3:                                                ; preds = %1
  %4 = getelementptr inbounds nuw i8, ptr %0, i64 8
  %5 = load i64, ptr %4, align 8, !tbaa !15
  %.not11 = icmp eq i64 %5, 0
  br i1 %.not11, label %.loopexit, label %.lr.ph

.lr.ph:                                           ; preds = %3, %.lr.ph
  %.012 = phi i64 [ %10, %.lr.ph ], [ 0, %3 ]
  %6 = load ptr, ptr %0, align 8, !tbaa !14
  %7 = getelementptr inbounds nuw ptr, ptr %6, i64 %.012
  %8 = load ptr, ptr %7, align 8, !tbaa !16
  %9 = load ptr, ptr @Curl_cfree, align 8, !tbaa !18
  tail call void %9(ptr noundef %8) #9
  %10 = add nuw i64 %.012, 1
  %11 = load i64, ptr %4, align 8, !tbaa !15
  %12 = icmp ult i64 %10, %11
  br i1 %12, label %.lr.ph, label %.loopexit.loopexit, !llvm.loop !19

.loopexit.loopexit:                               ; preds = %.lr.ph
  %.pre = load ptr, ptr %0, align 8, !tbaa !14
  br label %.loopexit

.loopexit:                                        ; preds = %.loopexit.loopexit, %1, %3
  %13 = phi ptr [ %.pre, %.loopexit.loopexit ], [ null, %1 ], [ %2, %3 ]
  %14 = load ptr, ptr @Curl_cfree, align 8, !tbaa !18
  tail call void %14(ptr noundef %13) #9
  %15 = getelementptr inbounds nuw i8, ptr %0, i64 32
  store i64 0, ptr %15, align 8, !tbaa !3
  tail call void @llvm.memset.p0.i64(ptr noundef nonnull align 8 dereferenceable(24) %0, i8 0, i64 24, i1 false)
  ret void
}